; Function Attrs: nounwind uwtable
define dso_local ptr @bitmap_dup(ptr noundef readonly captures(none) %0) local_unnamed_addr #0 {
  %2 = getelementptr inbounds nuw i8, ptr %0, i64 8
  %3 = load i64, ptr %2, align 8, !tbaa !11
  %4 = tail call ptr @xmalloc(i64 noundef 16) #13
  %5 = tail call ptr @xcalloc(i64 noundef %3, i64 noundef 8) #13
  store ptr %5, ptr %4, align 8, !tbaa !4
  %6 = getelementptr inbounds nuw i8, ptr %4, i64 8
  store i64 %3, ptr %6, align 8, !tbaa !11
  %7 = load ptr, ptr %0, align 8, !tbaa !4
  %8 = load i64, ptr %2, align 8, !tbaa !11
  %.not.i = icmp eq i64 %8, 0
  br i1 %.not.i, label %copy_array.exit, label %9

9:                                                ; preds = %1
  %10 = icmp ugt i64 %8, 2305843009213693951
  br i1 %10, label %11, label %st_mult.exit.i

11:                                               ; preds = %9
  tail call void (ptr, ...) @die(ptr noundef nonnull @.str, i64 noundef 8, i64 noundef %8) #14
  unreachable

st_mult.exit.i:                                   ; preds = %9
  %12 = shl nuw i64 %8, 3
  tail call void @llvm.memcpy.p0.p0.i64(ptr align 1 %5, ptr readonly align 1 %7, i64 %12, i1 false)
  br label %copy_array.exit

copy_array.exit:                                  ; preds = %1, %st_mult.exit.i
  ret ptr %4
}